target datalayout = "e-m:e-p270:32:32-p271:32:32-p272:64:64-i64:64-i128:128-f80:128-n8:16:32:64-S128"
target triple = "x86_64-pc-linux-gnu"

; Function Attrs: nounwind uwtable
define zeroext i16 @png_get_uint_16(ptr noundef %0) #0 {
  %2 = alloca ptr, align 8
  %3 = alloca i32, align 4
  store ptr %0, ptr %2, align 8, !tbaa !8
  call void @llvm.lifetime.start.p0(i64 4, ptr %3) #7
  %4 = load ptr, ptr %2, align 8, !tbaa !8
  %5 = load i8, ptr %4, align 1, !tbaa !10
  %6 = zext i8 %5 to i32
  %7 = shl i32 %6, 8
  %8 = load ptr, ptr %2, align 8, !tbaa !8
  %9 = getelementptr inbounds i8, ptr %8, i64 1
  %10 = load i8, ptr %9, align 1, !tbaa !10
  %11 = zext i8 %10 to i32
  %12 = add i32 %7, %11
  store i32 %12, ptr %3, align 4, !tbaa !11
  %13 = load i32, ptr %3, align 4, !tbaa !11
  %14 = trunc i32 %13 to i16
  call void @llvm.lifetime.end.p0(i64 4, ptr %3) #7
  ret i16 %14
}